target datalayout = "e-m:e-p270:32:32-p271:32:32-p272:64:64-i64:64-i128:128-f80:128-n8:16:32:64-S128"
target triple = "x86_64-unknown-linux-gnu"

%"class.OpenImageIO_v2_6_0::paropt" = type <{ i32, i16, i16, i64, ptr, i8, [7 x i8] }>
%"class.OpenImageIO_v2_6_0::basic_string_view" = type { ptr, i64 }
%"class.OpenImageIO_v2_6_0::parallel_options" = type { i32, i32, i8, i64, ptr, %"class.OpenImageIO_v2_6_0::basic_string_view" }

; Function Attrs: mustprogress nounwind uwtable
define linkonce_odr void @_ZN18OpenImageIO_v2_6_06paroptC2EiNS0_8SplitDirEm(ptr noundef nonnull align 8 dereferenceable(25) %this, i32 noundef %maxthreads, i16 noundef signext %splitdir, i64 noundef %minitems) unnamed_addr #1 comdat align 2 {
entry:
  %this.addr = alloca ptr, align 8
  %maxthreads.addr = alloca i32, align 4
  %splitdir.addr = alloca i16, align 2
  %minitems.addr = alloca i64, align 8
  store ptr %this, ptr %this.addr, align 8
  store i32 %maxthreads, ptr %maxthreads.addr, align 4
  store i16 %splitdir, ptr %splitdir.addr, align 2
  store i64 %minitems, ptr %minitems.addr, align 8
  %this1 = load ptr, ptr %this.addr, align 8
  %m_maxthreads = getelementptr inbounds %"class.OpenImageIO_v2_6_0::paropt", ptr %this1, i32 0, i32 0
  %0 = load i32, ptr %maxthreads.addr, align 4
  store i32 %0, ptr %m_maxthreads, align 8
  %m_strategy = getelementptr inbounds %"class.OpenImageIO_v2_6_0::paropt", ptr %this1, i32 0, i32 1
  store i16 0, ptr %m_strategy, align 4
  %m_splitdir = getelementptr inbounds %"class.OpenImageIO_v2_6_0::paropt", ptr %this1, i32 0, i32 2
  %1 = load i16, ptr %splitdir.addr, align 2
  store i16 %1, ptr %m_splitdir, align 2
  %m_minitems = getelementptr inbounds %"class.OpenImageIO_v2_6_0::paropt", ptr %this1, i32 0, i32 3
  %2 = load i64, ptr %minitems.addr, align 8
  store i64 %2, ptr %m_minitems, align 8
  %m_pool = getelementptr inbounds %"class.OpenImageIO_v2_6_0::paropt", ptr %this1, i32 0, i32 4
  store ptr null, ptr %m_pool, align 8
  %m_recursive = getelementptr inbounds %"class.OpenImageIO_v2_6_0::paropt", ptr %this1, i32 0, i32 5
  store i8 0, ptr %m_recursive, align 8
  ret void
}

; Function Attrs: mustprogress nounwind uwtable
define linkonce_odr hidden noundef i64 @_ZNK18OpenImageIO_v2_6_017basic_string_viewIcSt11char_traitsIcEE4sizeEv(ptr noundef nonnull align 8 dereferenceable(16) %this) #1 comdat align 2 {
entry:
  %this.addr = alloca ptr, align 8
  store ptr %this, ptr %this.addr, align 8
  %this1 = load ptr, ptr %this.addr, align 8
  %m_len = getelementptr inbounds %"class.OpenImageIO_v2_6_0::basic_string_view", ptr %this1, i32 0, i32 1
  %0 = load i64, ptr %m_len, align 8
  ret i64 %0
}

; Function Attrs: mustprogress nounwind uwtable
define linkonce_odr hidden noundef ptr @_ZNK18OpenImageIO_v2_6_017basic_string_viewIcSt11char_traitsIcEE4dataEv(ptr noundef nonnull align 8 dereferenceable(16) %this) #1 comdat align 2 {
entry:
  %this.addr = alloca ptr, align 8
  store ptr %this, ptr %this.addr, align 8
  %this1 = load ptr, ptr %this.addr, align 8
  %m_chars = getelementptr inbounds %"class.OpenImageIO_v2_6_0::basic_string_view", ptr %this1, i32 0, i32 0
  %0 = load ptr, ptr %m_chars, align 8
  ret ptr %0
}

; Function Attrs: noreturn nounwind uwtable
define linkonce_odr hidden void @__clang_call_terminate(ptr noundef %0) #10 comdat {
  %2 = call ptr @__cxa_begin_catch(ptr %0) #5
  call void @_ZSt9terminatev() #19
  unreachable
}

; Function Attrs: mustprogress nounwind uwtable
define linkonce_odr void @_ZN18OpenImageIO_v2_6_06paroptC2ENS_17basic_string_viewIcSt11char_traitsIcEEEiNS0_8SplitDirEm(ptr noundef nonnull align 8 dereferenceable(25) %this, ptr noundef %name, i32 noundef %maxthreads, i16 noundef signext %splitdir, i64 noundef %minitems) unnamed_addr #1 comdat align 2 {
entry:
  %this.addr = alloca ptr, align 8
  %name.indirect_addr = alloca ptr, align 8
  %maxthreads.addr = alloca i32, align 4
  %splitdir.addr = alloca i16, align 2
  %minitems.addr = alloca i64, align 8
  store ptr %this, ptr %this.addr, align 8
  store ptr %name, ptr %name.indirect_addr, align 8
  store i32 %maxthreads, ptr %maxthreads.addr, align 4
  store i16 %splitdir, ptr %splitdir.addr, align 2
  store i64 %minitems, ptr %minitems.addr, align 8
  %this1 = load ptr, ptr %this.addr, align 8
  %0 = load i32, ptr %maxthreads.addr, align 4
  %1 = load i16, ptr %splitdir.addr, align 2
  %2 = load i64, ptr %minitems.addr, align 8
  call void @_ZN18OpenImageIO_v2_6_06paroptC2EiNS0_8SplitDirEm(ptr noundef nonnull align 8 dereferenceable(25) %this1, i32 noundef %0, i16 noundef signext %1, i64 noundef %2) #5
  ret void
}

; Function Attrs: mustprogress nounwind uwtable
define linkonce_odr hidden void @_ZN18OpenImageIO_v2_6_017basic_string_viewIcSt11char_traitsIcEEC2ERKS3_(ptr noundef nonnull align 8 dereferenceable(16) %this, ptr noundef nonnull align 8 dereferenceable(16) %copy) unnamed_addr #1 comdat align 2 {
entry:
  %this.addr = alloca ptr, align 8
  %copy.addr = alloca ptr, align 8
  store ptr %this, ptr %this.addr, align 8
  store ptr %copy, ptr %copy.addr, align 8
  %this1 = load ptr, ptr %this.addr, align 8
  %m_chars = getelementptr inbounds %"class.OpenImageIO_v2_6_0::basic_string_view", ptr %this1, i32 0, i32 0
  %0 = load ptr, ptr %copy.addr, align 8
  %call = call noundef ptr @_ZNK18OpenImageIO_v2_6_017basic_string_viewIcSt11char_traitsIcEE4dataEv(ptr noundef nonnull align 8 dereferenceable(16) %0) #5
  store ptr %call, ptr %m_chars, align 8
  %m_len = getelementptr inbounds %"class.OpenImageIO_v2_6_0::basic_string_view", ptr %this1, i32 0, i32 1
  %1 = load ptr, ptr %copy.addr, align 8
  %call2 = call noundef i64 @_ZNK18OpenImageIO_v2_6_017basic_string_viewIcSt11char_traitsIcEE4sizeEv(ptr noundef nonnull align 8 dereferenceable(16) %1) #5
  store i64 %call2, ptr %m_len, align 8
  ret void
}

; Function Attrs: mustprogress nounwind uwtable
define linkonce_odr void @_ZN18OpenImageIO_v2_6_06paroptC2ERKNS_16parallel_optionsE(ptr noundef nonnull align 8 dereferenceable(25) %this, ptr noundef nonnull align 8 dereferenceable(48) %po) unnamed_addr #1 comdat align 2 personality ptr @__gxx_personality_v0 {
entry:
  %this.addr = alloca ptr, align 8
  %po.addr = alloca ptr, align 8
  %agg.tmp = alloca %"class.OpenImageIO_v2_6_0::basic_string_view", align 8
  store ptr %this, ptr %this.addr, align 8
  store ptr %po, ptr %po.addr, align 8
  %this1 = load ptr, ptr %this.addr, align 8
  %0 = load ptr, ptr %po.addr, align 8
  %name = getelementptr inbounds %"class.OpenImageIO_v2_6_0::parallel_options", ptr %0, i32 0, i32 5
  invoke void @_ZN18OpenImageIO_v2_6_017basic_string_viewIcSt11char_traitsIcEEC2ERKS3_(ptr noundef nonnull align 8 dereferenceable(16) %agg.tmp, ptr noundef nonnull align 8 dereferenceable(16) %name)
          to label %invoke.cont unwind label %terminate.lpad

invoke.cont:                                      ; preds = %entry
  %1 = load ptr, ptr %po.addr, align 8
  %maxthreads = getelementptr inbounds %"class.OpenImageIO_v2_6_0::parallel_options", ptr %1, i32 0, i32 0
  %2 = load i32, ptr %maxthreads, align 8
  %3 = load ptr, ptr %po.addr, align 8
  %splitdir = getelementptr inbounds %"class.OpenImageIO_v2_6_0::parallel_options", ptr %3, i32 0, i32 1
  %4 = load i32, ptr %splitdir, align 4
  %conv = trunc i32 %4 to i16
  %5 = load ptr, ptr %po.addr, align 8
  %minitems = getelementptr inbounds %"class.OpenImageIO_v2_6_0::parallel_options", ptr %5, i32 0, i32 3
  %6 = load i64, ptr %minitems, align 8
  call void @_ZN18OpenImageIO_v2_6_06paroptC2ENS_17basic_string_viewIcSt11char_traitsIcEEEiNS0_8SplitDirEm(ptr noundef nonnull align 8 dereferenceable(25) %this1, ptr noundef %agg.tmp, i32 noundef %2, i16 noundef signext %conv, i64 noundef %6) #5
  %7 = load ptr, ptr %po.addr, align 8
  %recursive = getelementptr inbounds %"class.OpenImageIO_v2_6_0::parallel_options", ptr %7, i32 0, i32 2
  %8 = load i8, ptr %recursive, align 8
  %tobool = trunc i8 %8 to i1
  %m_recursive = getelementptr inbounds %"class.OpenImageIO_v2_6_0::paropt", ptr %this1, i32 0, i32 5
  %frombool = zext i1 %tobool to i8
  store i8 %frombool, ptr %m_recursive, align 8
  %9 = load ptr, ptr %po.addr, align 8
  %pool = getelementptr inbounds %"class.OpenImageIO_v2_6_0::parallel_options", ptr %9, i32 0, i32 4
  %10 = load ptr, ptr %pool, align 8
  %m_pool = getelementptr inbounds %"class.OpenImageIO_v2_6_0::paropt", ptr %this1, i32 0, i32 4
  store ptr %10, ptr %m_pool, align 8
  ret void

terminate.lpad:                                   ; preds = %entry
  %11 = landingpad { ptr, i32 }
          catch ptr null
  %12 = extractvalue { ptr, i32 } %11, 0
  call void @__clang_call_terminate(ptr %12) #19
  unreachable
}

; Function Attrs: mustprogress uwtable
define hidden void @_ZN18OpenImageIO_v2_6_023parallel_for_chunked_2DEllllllOSt8functionIFvillllEENS_16parallel_optionsE(i64 noundef %xbegin, i64 noundef %xend, i64 noundef %xchunksize, i64 noundef %ybegin, i64 noundef %yend, i64 noundef %ychunksize, ptr noundef nonnull align 8 dereferenceable(32) %task, ptr noundef %opt) #6 {
entry:
  %xbegin.addr = alloca i64, align 8
  %xend.addr = alloca i64, align 8
  %xchunksize.addr = alloca i64, align 8
  %ybegin.addr = alloca i64, align 8
  %yend.addr = alloca i64, align 8
  %ychunksize.addr = alloca i64, align 8
  %task.addr = alloca ptr, align 8
  %opt.indirect_addr = alloca ptr, align 8
  %agg.tmp = alloca %"class.OpenImageIO_v2_6_0::paropt", align 8
  store i64 %xbegin, ptr %xbegin.addr, align 8
  store i64 %xend, ptr %xend.addr, align 8
  store i64 %xchunksize, ptr %xchunksize.addr, align 8
  store i64 %ybegin, ptr %ybegin.addr, align 8
  store i64 %yend, ptr %yend.addr, align 8
  store i64 %ychunksize, ptr %ychunksize.addr, align 8
  store ptr %task, ptr %task.addr, align 8
  store ptr %opt, ptr %opt.indirect_addr, align 8
  %0 = load i64, ptr %xbegin.addr, align 8
  %1 = load i64, ptr %xend.addr, align 8
  %2 = load i64, ptr %xchunksize.addr, align 8
  %3 = load i64, ptr %ybegin.addr, align 8
  %4 = load i64, ptr %yend.addr, align 8
  %5 = load i64, ptr %ychunksize.addr, align 8
  %6 = load ptr, ptr %task.addr, align 8
  call void @_ZN18OpenImageIO_v2_6_06paroptC2ERKNS_16parallel_optionsE(ptr noundef nonnull align 8 dereferenceable(25) %agg.tmp, ptr noundef nonnull align 8 dereferenceable(48) %opt) #5
  call void @_ZN18OpenImageIO_v2_6_026parallel_for_chunked_2D_idEllllllOSt8functionIFvillllEENS_6paroptE(i64 noundef %0, i64 noundef %1, i64 noundef %2, i64 noundef %3, i64 noundef %4, i64 noundef %5, ptr noundef nonnull align 8 dereferenceable(32) %6, ptr noundef byval(%"class.OpenImageIO_v2_6_0::paropt") align 8 %agg.tmp)
  ret void
}