; Function Attrs: mustprogress uwtable
define hidden void @_ZN18OpenImageIO_v2_6_023parallel_for_chunked_2DEllllllOSt8functionIFvillllEENS_16parallel_optionsE(i64 noundef %xbegin, i64 noundef %xend, i64 noundef %xchunksize, i64 noundef %ybegin, i64 noundef %yend, i64 noundef %ychunksize, ptr noundef nonnull align 8 dereferenceable(32) %task, ptr nocapture noundef readonly %opt) local_unnamed_addr #4 personality ptr @__gxx_personality_v0 {
entry:
  %agg.tmp = alloca %"class.OpenImageIO_v2_6_0::paropt", align 8
  %0 = load i32, ptr %opt, align 8
  %splitdir.i = getelementptr inbounds i8, ptr %opt, i64 4
  %1 = load i32, ptr %splitdir.i, align 4
  %conv.i = trunc i32 %1 to i16
  %minitems.i = getelementptr inbounds i8, ptr %opt, i64 16
  %2 = load i64, ptr %minitems.i, align 8
  store i32 %0, ptr %agg.tmp, align 8
  %m_strategy.i.i.i = getelementptr inbounds i8, ptr %agg.tmp, i64 4
  store i16 0, ptr %m_strategy.i.i.i, align 4
  %m_splitdir.i.i.i = getelementptr inbounds i8, ptr %agg.tmp, i64 6
  store i16 %conv.i, ptr %m_splitdir.i.i.i, align 2
  %m_minitems.i.i.i = getelementptr inbounds i8, ptr %agg.tmp, i64 8
  store i64 %2, ptr %m_minitems.i.i.i, align 8
  %m_pool.i.i.i = getelementptr inbounds i8, ptr %agg.tmp, i64 16
  %m_recursive.i.i.i = getelementptr inbounds i8, ptr %agg.tmp, i64 24
  %recursive.i = getelementptr inbounds i8, ptr %opt, i64 8
  %3 = load i8, ptr %recursive.i, align 8
  %4 = and i8 %3, 1
  store i8 %4, ptr %m_recursive.i.i.i, align 8
  %pool.i = getelementptr inbounds i8, ptr %opt, i64 24
  %5 = load ptr, ptr %pool.i, align 8
  store ptr %5, ptr %m_pool.i.i.i, align 8
  tail call void @_ZN18OpenImageIO_v2_6_026parallel_for_chunked_2D_idEllllllOSt8functionIFvillllEENS_6paroptE(i64 noundef %xbegin, i64 noundef %xend, i64 noundef %xchunksize, i64 noundef %ybegin, i64 noundef %yend, i64 noundef %ychunksize, ptr noundef nonnull align 8 dereferenceable(32) %task, ptr noundef nonnull byval(%"class.OpenImageIO_v2_6_0::paropt") align 8 %agg.tmp)
  ret void
}